(lp0
(lp1
F0.4762719537320077
aF0.5291910597022308
aF0.4762719537320077
aF0.48215185439536584
aa(lp2
F0.6193432864693152
aF0.6881592071881281
aF0.6193432864693152
aF0.6269894998825167
aa(lp3
F0.776794728240284
aF0.8631052536003155
aF0.776794728240284
aF0.7863847866136208
aa(lp4
F0.756274589740199
aF0.8403050997113322
aF0.756274589740199
aF0.7656113130703249
aa(lp5
F1.0023362102982059
aF1.1137069003313398
aF1.0023362102982059
aF1.0147107314129986
aa(lp6
F0.9660790125456484
aF1.0734211250507204
aF0.9660790125456484
aF0.9780059139351008
aa(lp7
F1.142113980970067
aF1.2690155344111855
aF1.142113980970067
aF1.1562141535746358
aa(lp8
F1.4476435443315219
aF1.608492827035024
aF1.4476435443315219
aF1.465515686854133
aa(lp9
F0.4887576687208669
aF0.5350709603655889
aF0.5291910597022308
aF0.5945232892950987
aa(lp10
F0.6355796902603109
aF0.6958054206013295
aF0.6881592071881281
aF0.7731171340014773
aa(lp11
F0.7971588028108263
aF0.8726953119736524
aF0.8631052536003155
aF0.9696614577485025
aa(lp12
F0.7761007182930589
aF0.8496418230414581
aF0.8403050997113322
aF0.9440464700460646
aa(lp13
F1.0286129711839385
aF1.1260814214461325
aF1.1137069003313398
aF1.2512015793845916
aa(lp14
F0.9914052722862141
aF1.085348026440173
aF1.0734211250507204
aF1.205942251600192
aa(lp15
F1.1720550882291512
aF1.2831157070157542
aF1.2690155344111855
aF1.4256841189063936
aa(lp16
F1.485594266725215
aF1.6263649695576357
aF1.608492827035024
aF1.8070721883973726
aa(lp17
F0.5559926440451661
aF0.5492122459470543
aF0.5492122459470543
aF0.6102358288300603
aa(lp18
F0.8140497375566706
aF0.8041223017328089
aF0.8041223017328089
aF0.8934692241475654
aa(lp19
F0.7091225969597454
aF0.7004747604114558
aF0.7004747604114558
aF0.778305289346062
aa(lp20
F0.8203821564740724
aF0.8103774960292667
aF0.8103774960292667
aF0.9004194400325185
aa(lp21
F1.0312383501525288
aF1.0186622727116443
aF1.0186622727116443
aF1.1318469696796047
aa(lp22
F1.0432637714958164
aF1.0305410425751358
aF1.0305410425751358
aF1.145045602861262
aa(lp23
F1.0412238172637096
aF1.0285259658336643
aF1.0285259658336643
aF1.1428066287040715
aa(lp24
F1.3218545839879767
aF1.305734406134465
aF1.305734406134465
aF1.450816006816072
aa(lp25
F0.609102296051837
aF0.5498238059854876
aF0.54167677469109
aF0.6679212262451109
aa(lp26
F0.7903794444480451
aF0.8523827328100866
aF0.7043956109791237
aF0.8685636937547461
aa(lp27
F0.9936099227232569
aF0.8829665807127652
aF0.8834693281708579
aF1.0893727488285645
aa(lp28
F0.9673807824476894
aF0.8581448638247077
aF0.8601312282641921
aF1.0605954169653318
aa(lp29
F1.2804934290029433
aF1.2697470008997747
aF1.1399836612170724
aF1.4056709101728126
aa(lp30
F1.2355825288497895
aF1.1097694307742787
aF1.098747384791286
aF1.3548240110570058
aa(lp31
F1.4609146113752727
aF1.2966549895038486
aF1.2989566416702696
aF1.6016945039565655
aa(lp32
F1.851698311282031
aF1.6458719725661206
aF1.6464435494287175
aF2.0301675202982827
aa(lp33
F0.6022423106203706
aF0.6104609053407914
aF0.5564296203109887
aF0.6127366789492947
aa(lp34
F0.8008791243545498
aF0.9000350151687238
aF0.8609729231878808
aF0.9664224577159921
aa(lp35
F0.9823420364387655
aF0.7966685965844054
aF0.8937405969099708
aF0.9782463015780888
aa(lp36
F0.9545440512599528
aF0.9052906550429876
aF0.8686342690474417
aF0.9501982817100388
aa(lp37
F1.2846072358597866
aF1.1585517267145695
aF1.2836492406707145
aF1.4285664922903227
aa(lp38
F1.2218869267690586
aF1.153239790618222
aF1.1231687891253919
aF1.2360921334941497
aa(lp39
F1.4423992824719423
aF1.1697699675431799
aF1.312495924158364
aF1.4207910564175292
aa(lp40
F1.8311549081609348
aF1.4850465079371098
aF1.6659505524372027
aF1.8271665689408914
aa(lp41
F0.5580183326417459
aF0.6253620802765005
aF0.6855735854757468
aF0.6170162269281722
aa(lp42
F0.8731418567470963
aF0.9149232212454489
aF1.003774066634919
aF0.9033966599714272
aa(lp43
F0.8743923621048352
aF0.778305289346062
aF0.7188380676497992
aF0.7869531258943516
aa(lp44
F0.8642230915682942
aF0.9222342870129583
aF1.0115823338636936
aF0.9104241004773242
aa(lp45
F1.2715811634672103
aF1.1318469696796047
aF1.045367029746609
aF1.1444230471204893
aa(lp46
F1.1170114613084556
aF1.1725649392171948
aF1.286409257535492
aF1.1577683317819427
aa(lp47
F1.283893866815685
aF1.1428066287040715
aF1.0554893046727727
aF1.1555044801341168
aa(lp48
F1.6299290940773155
aF1.450816006816072
aF1.3399649072555027
aF1.466936184669584
aa(lp49
F0.6060411347535242
aF0.6733790386150268
aF0.6060411347535242
aF0.6135231240714689
aa(lp50
F0.772996819015688
aF0.8588853544618755
aF0.772996819015688
aF0.7825399896208199
aa(lp51
F0.9899623835100747
aF1.099958203900083
aF0.9899623835100747
aF1.0021841413311867
aa(lp52
F0.9639756122162004
aF1.071084013573556
aF0.9639756122162004
aF0.9758765457003511
aa(lp53
F1.2630658607472696
aF1.4034065119414105
aF1.2630658607472696
aF1.2786592664355074
aa(lp54
F1.2299100518003068
aF1.366566724222563
aF1.2299100518003068
aF1.2450941265138908
aa(lp55
F1.4557040787699798
aF1.6174489764110886
aF1.4557040787699798
aF1.4736757340634363
aa(lp56
F1.8448650777004603
aF2.0498500863338447
aF1.8448650777004603
aF1.8676411897708365
aa(lp57
F0.7565122532588572
aF0.6111479666185375
aF0.6183158751601086
aF0.6085621626644725
aa(lp58
F0.7920946983357393
aF0.9542535241567766
aF0.7808362738429131
aF0.9649205834077861
aa(lp59
F1.23575551302355
aF0.9975945363832244
aF1.0086985126258643
aF0.9909162550466954
aa(lp60
F1.2033166078418962
aF0.9546094591891863
aF0.9820732929219494
aF0.9630398145126144
aa(lp61
F1.2957206942863477
aF1.440634569493827
aF1.2649000233147054
aF1.5766665751440538
aa(lp62
F1.2636745119171342
aF1.242249461311086
aF1.2203984541362054
aF1.5352786654846078
aa(lp63
F1.8171340352272725
aF1.4493931137602083
aF1.4818590559748643
aF1.555825921938848
aa(lp64
F1.8955117678757016
aF1.8631880273007786
aF1.828922199211655
aF2.3029179982269117
aa(lp65
F0.6802901929092314
aF0.606181357361914
aF0.5644028127422259
aF0.6688635272878443
aa(lp66
F0.8909458015677352
aF0.9630608129132887
aF0.8696450432566544
aF1.081583693480061
aa(lp67
F1.110556776529202
aF0.9879617722681425
aF0.9069150456875195
aF1.0863034087087657
aa(lp68
F1.0606862613114894
aF0.9450648362757021
aF0.8814791762263325
aF0.8694600441540145
aa(lp69
F1.4411401193778262
aF1.442695171884403
aF1.2990388505181263
aF1.6223755402200912
aa(lp70
F1.3831053090320435
aF1.231563592330429
aF1.139409708023876
aF1.3802457877184844
aa(lp71
F1.6114081585236018
aF1.4350565438265923
aF1.3318854819727277
aF1.4007930441727245
aa(lp72
F2.0746579635480655
aF1.8452768922084173
aF1.6904980954507793
aF2.0703686815777265
aa(lp73
F0.5965962893798794
aF0.6757235127193106
aF0.6735900412844124
aF0.5108574644646968
aa(lp74
F0.9565890400055697
aF1.0710840135735562
aF0.8779832337819269
aF0.9104590301063296
aa(lp75
F0.9801530982233833
aF1.0975712949932572
aF1.099958203900083
aF0.912277388558971
aa(lp76
F0.9565890400055694
aF0.8822967753417511
aF1.071084013573556
aF0.8870987100584545
aa(lp77
F1.6086747545462237
aF1.6182617333632479
aF1.4360613454804887
aF1.766237995708945
aa(lp78
F1.588821165693702
aF1.3939413897992152
aF1.4003311843393904
aF1.7417273921873133
aa(lp79
F1.588821165693702
aF1.419308373076055
aF1.6286340338309488
aF1.7417273921873133
aa(lp80
F2.383231748540553
aF2.0909120846988225
aF2.100496776509086
aF2.61259108828097
aa(lp81
F0.6148513130721988
aF0.7501696418839673
aF0.6118501724012155
aF0.684186690428473
aa(lp82
F0.976938180002009
aF1.215112544526982
aF0.9724803529404695
aF1.1084378290794972
aa(lp83
F1.0005609561391937
aF1.2177201220014044
aF0.9985472273396611
aF1.1105499668337795
aa(lp84
F0.9535778599541338
aF0.7844052880401705
aF0.9555534328839265
aF0.85054756113844
aa(lp85
F1.5946929700353882
aF1.8226688167904728
aF1.473085607192079
aF1.6626567436192456
aa(lp86
F1.550328777661235
aF1.2422494899266603
aF1.2770707656128135
aF1.3799629779182423
aa(lp87
F1.550328777661235
aF1.2627967463809004
aF1.4619960737009756
aF1.3799629779182423
aa(lp88
F2.3254931664918526
aF1.8633742348899904
aF1.9156061484192204
aF2.0699444668773634
aa(lp89
F0.6677334175011137
aF0.6009600757510023
aF0.6083793359454591
aF0.6009600757510023
aa(lp90
F1.081583693480061
aF0.9734253241320548
aF0.9854429207262778
aF0.9734253241320548
aa(lp91
F1.083904723979272
aF0.975514251581345
aF0.9875576374033368
aF0.975514251581345
aa(lp92
F0.85054756113844
aF0.765492805024596
aF0.7749433334816899
aF0.765492805024596
aa(lp93
F1.6223755402200912
aF1.460137986198082
aF1.4781643810894165
aF1.460137986198082
aa(lp94
F1.3799629779182423
aF1.2419666801264182
aF1.2572996021032874
aF1.2419666801264182
aa(lp95
F1.3799629779182423
aF1.2419666801264182
aF1.2572996021032874
aF1.2419666801264182
aa(lp96
F2.0699444668773634
aF1.8629500201896272
aF1.8859494031549313
aF1.8629500201896272
aa(lp97
F0.0
aF0.0
aF0.0
aF0.0
aa(lp98
F0.0
aF0.0
aF0.0
aF0.0
aa(lp99
F0.0
aF0.0
aF0.0
aF0.0
aa(lp100
F0.0
aF0.0
aF0.0
aF0.0
aa(lp101
F0.0
aF0.0
aF0.0
aF0.0
aa(lp102
F0.0
aF0.0
aF0.0
aF0.0
aa(lp103
F0.0
aF0.0
aF0.0
aF0.0
aa(lp104
F0.0
aF0.0
aF0.0
aF0.0
aa(lp105
F0.04926024407723775
aF0.5041573128398777
aF0.5473360453026417
aF0.4926024407723776
aa(lp106
F0.989010989010989
aF0.8974964623205213
aF0.9675780509945806
aF0.8901098901098902
aa(lp107
F0.989186953064316
aF0.901678815929852
aF0.9909661451590672
aF0.8918695306431605
aa(lp108
F0.989010989010989
aF0.8974964623205212
aF0.9675780509945804
aF0.8901098901098902
aa(lp109
F1.978021978021978
aF1.7611592218116074
aF1.6306527765242456
aF1.7802197802197803
aa(lp110
F1.978021978021978
aF1.7589532674946604
aF1.6107991876717238
aF1.7802197802197803
aa(lp111
F1.978021978021978
aF1.7589532674946604
aF1.6107991876717238
aF1.7802197802197803
aa(lp112
F2.967032967032967
aF2.6384299012419907
aF2.4161987815075863
aF2.6703296703296706
aa.(lp0
I1
aI1
aI1
aI1
aI1
aI1
aI1
aI1
aI3
aI3
aI3
aI3
aI3
aI3
aI3
aI3
aI3
aI3
aI3
aI3
aI3
aI3
aI3
aI3
aI3
aI3
aI3
aI3
aI3
aI3
aI3
aI3
aI3
aI3
aI0
aI0
aI3
aI3
aI0
aI0
aI2
aI2
aI0
aI2
aI0
aI2
aI0
aI0
aI1
aI1
aI1
aI1
aI1
aI1
aI1
aI1
aI0
aI3
aI0
aI0
aI3
aI3
aI0
aI3
aI0
aI3
aI0
aI0
aI3
aI0
aI0
aI0
aI1
aI1
aI2
aI2
aI3
aI3
aI3
aI3
aI1
aI1
aI1
aI2
aI1
aI0
aI0
aI0
aI0
aI0
aI0
aI0
aI0
aI0
aI0
aI0
aI0
aI0
aI0
aI0
aI0
aI0
aI0
aI0
aI2
aI0
aI2
aI0
aI0
aI0
aI0
aI0
a.